###############################################################################
#                                                                             #
# IAR C/C++ Compiler V8.10.3.10338/W32 for 8051         17/Aug/2020  21:21:23 #
# Copyright 2004-2011 IAR Systems AB.                                         #
#                                                                             #
#    Core               =  plain                                              #
#    Code model         =  banked                                             #
#    Data model         =  large                                              #
#    Calling convention =  xdata reentrant                                    #
#    Constant location  =  data_rom                                           #
#    Dptr setup         =  1,16                                               #
#    Source file        =  D:\Project\ZStackposition\Projects\zstack\Samples\ #
#                          SampleApp\Source\SampleApp.c                       #
#    Command line       =  -f D:\Project\ZStackposition\Projects\zstack\Sampl #
#                          es\SampleApp\CC2530DB\..\..\..\Tools\CC2530DB\f8wE #
#                          ndev.cfg (-DCPU32MHZ -DROOT=__near_func            #
#                          -DMAC_CFG_TX_DATA_MAX=3 -DMAC_CFG_TX_MAX=6         #
#                          -DMAC_CFG_RX_MAX=3) -f D:\Project\ZStackposition\P #
#                          rojects\zstack\Samples\SampleApp\CC2530DB\..\..\.. #
#                          \Tools\CC2530DB\f8wConfig.cfg (-DZIGBEEPRO         #
#                          -DSECURE=0 -DZG_SECURE_DYNAMIC=0 -DREFLECTOR       #
#                          -DDEFAULT_CHANLIST=0x00000800                      #
#                          -DZDAPP_CONFIG_PAN_ID=0xFFF1                       #
#                          -DNWK_START_DELAY=100 -DEXTENDED_JOINING_RANDOM_MA #
#                          SK=0x007F -DBEACON_REQUEST_DELAY=100               #
#                          -DBEACON_REQ_DELAY_MASK=0x00FF                     #
#                          -DLINK_STATUS_JITTER_MASK=0x007F                   #
#                          -DROUTE_EXPIRY_TIME=30 -DAPSC_ACK_WAIT_DURATION_PO #
#                          LLED=3000 -DNWK_INDIRECT_MSG_TIMEOUT=7             #
#                          -DMAX_RREQ_ENTRIES=8 -DAPSC_MAX_FRAME_RETRIES=3    #
#                          -DNWK_MAX_DATA_RETRIES=2                           #
#                          -DMAX_POLL_FAILURE_RETRIES=2 -DMAX_BCAST=9         #
#                          -DAPS_MAX_GROUPS=16 -DMAX_RTG_ENTRIES=40           #
#                          -DNWK_MAX_BINDING_ENTRIES=4                        #
#                          -DMAX_BINDING_CLUSTER_IDS=4 "-DDEFAULT_KEY={0x01,  #
#                          0x03, 0x05, 0x07, 0x09, 0x0B, 0x0D, 0x0F, 0x00,    #
#                          0x02, 0x04, 0x06, 0x08, 0x0A, 0x0C, 0x0D}"         #
#                          -DMAC_MAX_FRAME_SIZE=116                           #
#                          -DZDNWKMGR_MIN_TRANSMISSIONS=20 "-DCONST=const     #
#                          __code" -DGENERIC=__generic                        #
#                          -DRFD_RCVC_ALWAYS_ON=FALSE -DPOLL_RATE=1000        #
#                          -DQUEUED_POLL_RATE=100 -DRESPONSE_POLL_RATE=100)   #
#                          -DREJOIN_POLL_RATE=440 D:\Project\ZStackposition\P #
#                          rojects\zstack\Samples\SampleApp\Source\SampleApp. #
#                          c -D NWK_AUTO_POLL -D ZTOOL_P1 -D MT_TASK -D       #
#                          MT_SYS_FUNC -D MT_ZDO_FUNC -D LCD_SUPPORTED=DEBUG  #
#                          -lC D:\Project\ZStackposition\Projects\zstack\Samp #
#                          les\SampleApp\CC2530DB\EndDeviceEB\List\ -lA       #
#                          D:\Project\ZStackposition\Projects\zstack\Samples\ #
#                          SampleApp\CC2530DB\EndDeviceEB\List\               #
#                          --diag_suppress Pe001,Pa010 -o                     #
#                          D:\Project\ZStackposition\Projects\zstack\Samples\ #
#                          SampleApp\CC2530DB\EndDeviceEB\Obj\ -e             #
#                          --no_code_motion --debug --core=plain --dptr=16,1  #
#                          --data_model=large --code_model=banked             #
#                          --calling_convention=xdata_reentrant               #
#                          --place_constants=data_rom --nr_virtual_regs 16    #
#                          -I D:\Project\ZStackposition\Projects\zstack\Sampl #
#                          es\SampleApp\CC2530DB\ -I                          #
#                          D:\Project\ZStackposition\Projects\zstack\Samples\ #
#                          SampleApp\CC2530DB\..\Source\ -I                   #
#                          D:\Project\ZStackposition\Projects\zstack\Samples\ #
#                          SampleApp\CC2530DB\..\..\..\ZMain\TI2530DB\ -I     #
#                          D:\Project\ZStackposition\Projects\zstack\Samples\ #
#                          SampleApp\CC2530DB\..\..\..\..\..\Components\hal\i #
#                          nclude\ -I D:\Project\ZStackposition\Projects\zsta #
#                          ck\Samples\SampleApp\CC2530DB\..\..\..\..\..\Compo #
#                          nents\hal\target\CC2530EB\ -I                      #
#                          D:\Project\ZStackposition\Projects\zstack\Samples\ #
#                          SampleApp\CC2530DB\..\..\..\..\..\Components\mac\i #
#                          nclude\ -I D:\Project\ZStackposition\Projects\zsta #
#                          ck\Samples\SampleApp\CC2530DB\..\..\..\..\..\Compo #
#                          nents\mac\high_level\ -I                           #
#                          D:\Project\ZStackposition\Projects\zstack\Samples\ #
#                          SampleApp\CC2530DB\..\..\..\..\..\Components\mac\l #
#                          ow_level\srf04\ -I D:\Project\ZStackposition\Proje #
#                          cts\zstack\Samples\SampleApp\CC2530DB\..\..\..\..\ #
#                          ..\Components\mac\low_level\srf04\single_chip\ -I  #
#                          D:\Project\ZStackposition\Projects\zstack\Samples\ #
#                          SampleApp\CC2530DB\..\..\..\..\..\Components\mt\   #
#                          -I D:\Project\ZStackposition\Projects\zstack\Sampl #
#                          es\SampleApp\CC2530DB\..\..\..\..\..\Components\os #
#                          al\include\ -I D:\Project\ZStackposition\Projects\ #
#                          zstack\Samples\SampleApp\CC2530DB\..\..\..\..\..\C #
#                          omponents\services\saddr\ -I                       #
#                          D:\Project\ZStackposition\Projects\zstack\Samples\ #
#                          SampleApp\CC2530DB\..\..\..\..\..\Components\servi #
#                          ces\sdata\ -I D:\Project\ZStackposition\Projects\z #
#                          stack\Samples\SampleApp\CC2530DB\..\..\..\..\..\Co #
#                          mponents\stack\af\ -I D:\Project\ZStackposition\Pr #
#                          ojects\zstack\Samples\SampleApp\CC2530DB\..\..\..\ #
#                          ..\..\Components\stack\nwk\ -I                     #
#                          D:\Project\ZStackposition\Projects\zstack\Samples\ #
#                          SampleApp\CC2530DB\..\..\..\..\..\Components\stack #
#                          \sapi\ -I D:\Project\ZStackposition\Projects\zstac #
#                          k\Samples\SampleApp\CC2530DB\..\..\..\..\..\Compon #
#                          ents\stack\sec\ -I D:\Project\ZStackposition\Proje #
#                          cts\zstack\Samples\SampleApp\CC2530DB\..\..\..\..\ #
#                          ..\Components\stack\sys\ -I                        #
#                          D:\Project\ZStackposition\Projects\zstack\Samples\ #
#                          SampleApp\CC2530DB\..\..\..\..\..\Components\stack #
#                          \zdo\ -I D:\Project\ZStackposition\Projects\zstack #
#                          \Samples\SampleApp\CC2530DB\..\..\..\..\..\Compone #
#                          nts\zmac\ -I D:\Project\ZStackposition\Projects\zs #
#                          tack\Samples\SampleApp\CC2530DB\..\..\..\..\..\Com #
#                          ponents\zmac\f8w\ -Ohz --require_prototypes        #
#    List file          =  D:\Project\ZStackposition\Projects\zstack\Samples\ #
#                          SampleApp\CC2530DB\EndDeviceEB\List\SampleApp.lst  #
#    Object file        =  D:\Project\ZStackposition\Projects\zstack\Samples\ #
#                          SampleApp\CC2530DB\EndDeviceEB\Obj\SampleApp.r51   #
#                                                                             #
#                                                                             #
###############################################################################

D:\Project\ZStackposition\Projects\zstack\Samples\SampleApp\Source\SampleApp.c
      1          /**************************************************************************************************
      2            Filename:       SampleApp.c
      3            Revised:        $Date: 2009-03-18 15:56:27 -0700 (Wed, 18 Mar 2009) $
      4            Revision:       $Revision: 19453 $
      5          
      6            Description:    Sample Application (no Profile).
      7          
      8          
      9            Copyright 2007 Texas Instruments Incorporated. All rights reserved.
     10          
     11            IMPORTANT: Your use of this Software is limited to those specific rights
     12            granted under the terms of a software license agreement between the user
     13            who downloaded the software, his/her employer (which must be your employer)
     14            and Texas Instruments Incorporated (the "License").  You may not use this
     15            Software unless you agree to abide by the terms of the License. The License
     16            limits your use, and you acknowledge, that the Software may not be modified,
     17            copied or distributed unless embedded on a Texas Instruments microcontroller
     18            or used solely and exclusively in conjunction with a Texas Instruments radio
     19            frequency transceiver, which is integrated into your product.  Other than for
     20            the foregoing purpose, you may not use, reproduce, copy, prepare derivative
     21            works of, modify, distribute, perform, display or sell this Software and/or
     22            its documentation for any purpose.
     23          
     24            YOU FURTHER ACKNOWLEDGE AND AGREE THAT THE SOFTWARE AND DOCUMENTATION ARE
     25            PROVIDED AS IS?WITHOUT WARRANTY OF ANY KIND, EITHER EXPRESS OR IMPLIED,
     26            INCLUDING WITHOUT LIMITATION, ANY WARRANTY OF MERCHANTABILITY, TITLE,
     27            NON-INFRINGEMENT AND FITNESS FOR A PARTICULAR PURPOSE. IN NO EVENT SHALL
     28            TEXAS INSTRUMENTS OR ITS LICENSORS BE LIABLE OR OBLIGATED UNDER CONTRACT,
     29            NEGLIGENCE, STRICT LIABILITY, CONTRIBUTION, BREACH OF WARRANTY, OR OTHER
     30            LEGAL EQUITABLE THEORY ANY DIRECT OR INDIRECT DAMAGES OR EXPENSES
     31            INCLUDING BUT NOT LIMITED TO ANY INCIDENTAL, SPECIAL, INDIRECT, PUNITIVE
     32            OR CONSEQUENTIAL DAMAGES, LOST PROFITS OR LOST DATA, COST OF PROCUREMENT
     33            OF SUBSTITUTE GOODS, TECHNOLOGY, SERVICES, OR ANY CLAIMS BY THIRD PARTIES
     34            (INCLUDING BUT NOT LIMITED TO ANY DEFENSE THEREOF), OR OTHER SIMILAR COSTS.
     35          
     36            Should you have any questions regarding your right to use this Software,
     37            contact Texas Instruments Incorporated at www.TI.com.
     38          **************************************************************************************************/
     39          
     40          /*********************************************************************
     41            This application isn't intended to do anything useful, it is
     42            intended to be a simple example of an application's structure.
     43          
     44            This application sends it's messages either as broadcast or
     45            broadcast filtered group messages.  The other (more normal)
     46            message addressing is unicast.  Most of the other sample
     47            applications are written to support the unicast message model.
     48          
     49            Key control:
     50              SW1:  Sends a flash command to all devices in Group 1.
     51              SW2:  Adds/Removes (toggles) this device in and out
     52                    of Group 1.  This will enable and disable the
     53                    reception of the flash command.
     54          *********************************************************************/
     55          
     56          /*********************************************************************
     57           * INCLUDES
     58           */
     59          #include "OSAL.h"
     60          #include "ZGlobals.h"
     61          #include "AF.h"
     62          #include "aps_groups.h"
     63          #include "ZDApp.h"
     64          
     65          #include "SampleApp.h"
     66          #include "SampleAppHw.h"
     67          
     68          #include "OnBoard.h"
     69          
     70          /* HAL */
     71          #include "hal_lcd.h"
     72          #include "hal_led.h"
     73          #include "hal_key.h"
     74          #include "MT_UART.h"
     75          #include "MT_APP.h"
     76          #include "MT.h"
     77          
     78          #include "string.h"
     79          #include "stdlib.h"
     80          /*********************************************************************
     81           * MACROS
     82           */
     83          
     84          /*********************************************************************
     85           * CONSTANTS
     86           */
     87          
     88          /*********************************************************************
     89           * TYPEDEFS
     90           */
     91          
     92          /*********************************************************************
     93           * GLOBAL VARIABLES
     94           */
     95          
     96          // This list should be filled with Application specific Cluster IDs.

   \                                 In  segment XDATA_ROM_C, align 1
     97          const cId_t SampleApp_ClusterList[SAMPLEAPP_MAX_CLUSTERS] =
   \                     SampleApp_ClusterList:
   \   000000   0100         DW 1
   \   000002   0200         DW 2
   \   000004   0300         DW 3
   \   000006   0400         DW 4
   \   000008   0500         DW 5
     98          {
     99            SAMPLEAPP_BLIND_CLUSTERID,
    100            SAMPLEAPP_FLASH_CLUSTERID,
    101            SAMPLEAPP_ROUT_ANODE_CLUSTERID,
    102            SAMPLEAPP_ROUT_BNODE_CLUSTERID,
    103            SAMPLEAPP_ROUT_CNODE_CLUSTERID
    104          };
    105          

   \                                 In  segment XDATA_ROM_C, align 1
    106          const SimpleDescriptionFormat_t SampleApp_SimpleDesc =
   \                     SampleApp_SimpleDesc:
   \   000000   14           DB 20
   \   000001   080F         DW 3848
   \   000003   0100         DW 1
   \   000005   00           DB 0
   \   000006   05           DB 5
   \   000007   ....         DW SampleApp_ClusterList
   \   000009   05           DB 5
   \   00000A   ....         DW SampleApp_ClusterList
    107          {
    108            SAMPLEAPP_ENDPOINT,              //  int Endpoint;
    109            SAMPLEAPP_PROFID,                //  uint16 AppProfId[2];
    110            SAMPLEAPP_DEVICEID,              //  uint16 AppDeviceId[2];
    111            SAMPLEAPP_DEVICE_VERSION,        //  int   AppDevVer:4;
    112            SAMPLEAPP_FLAGS,                 //  int   AppFlags:4;
    113            SAMPLEAPP_MAX_CLUSTERS,          //  uint8  AppNumInClusters;
    114            (cId_t *)SampleApp_ClusterList,  //  uint8 *pAppInClusterList;
    115            SAMPLEAPP_MAX_CLUSTERS,          //  uint8  AppNumInClusters;
    116            (cId_t *)SampleApp_ClusterList   //  uint8 *pAppInClusterList;
    117          };
    118          
    119          // This is the Endpoint/Interface description.  It is defined here, but
    120          // filled-in in SampleApp_Init().  Another way to go would be to fill
    121          // in the structure here and make it a "const" (in code space).  The
    122          // way it's defined in this sample app it is define in RAM.

   \                                 In  segment XDATA_Z, align 1, keep-with-next
    123          endPointDesc_t SampleApp_epDesc;
   \                     SampleApp_epDesc:
   \   000000                DS 6
   \   000006                REQUIRE __INIT_XDATA_Z
    124          
    125          /*********************************************************************
    126           * EXTERNAL VARIABLES
    127           */
    128          
    129          /*********************************************************************
    130           * EXTERNAL FUNCTIONS
    131           */
    132          
    133          /*********************************************************************
    134           * LOCAL VARIABLES
    135           */

   \                                 In  segment XDATA_Z, align 1, keep-with-next
    136          uint8 SampleApp_TaskID;   // Task ID for internal task/event processing
   \                     SampleApp_TaskID:
   \   000000                DS 1
   \   000001                REQUIRE __INIT_XDATA_Z
    137                                    // This variable will be received when
    138                                    // SampleApp_Init() is called.

   \                                 In  segment XDATA_Z, align 1, keep-with-next
    139          devStates_t SampleApp_NwkState;
   \                     SampleApp_NwkState:
   \   000000                DS 1
   \   000001                REQUIRE __INIT_XDATA_Z
    140          

   \                                 In  segment XDATA_Z, align 1, keep-with-next
    141          uint8 SampleApp_TransID;  // This is the unique message ID (counter)
   \                     SampleApp_TransID:
   \   000000                DS 1
   \   000001                REQUIRE __INIT_XDATA_Z
    142          

   \                                 In  segment XDATA_Z, align 1, keep-with-next
    143          afAddrType_t SampleApp_Periodic_DstAddr;//盲节点广播
   \                     SampleApp_Periodic_DstAddr:
   \   000000                DS 12
   \   00000C                REQUIRE __INIT_XDATA_Z

   \                                 In  segment XDATA_Z, align 1, keep-with-next
    144          afAddrType_t SampleApp_Flash_DstAddr;
   \                     SampleApp_Flash_DstAddr:
   \   000000                DS 12
   \   00000C                REQUIRE __INIT_XDATA_Z

   \                                 In  segment XDATA_Z, align 1, keep-with-next
    145          afAddrType_t SampleApp_p2p_DstAddr;//参考节点点播地址
   \                     SampleApp_p2p_DstAddr:
   \   000000                DS 12
   \   00000C                REQUIRE __INIT_XDATA_Z
    146          

   \                                 In  segment XDATA_Z, align 1, keep-with-next
    147          aps_Group_t SampleApp_Group;
   \                     SampleApp_Group:
   \   000000                DS 18
   \   000012                REQUIRE __INIT_XDATA_Z
    148          

   \                                 In  segment XDATA_Z, align 1, keep-with-next
    149          uint8 SampleAppPeriodicCounter = 0;
   \                     SampleAppPeriodicCounter:
   \   000000                DS 1
   \   000001                REQUIRE __INIT_XDATA_Z

   \                                 In  segment XDATA_Z, align 1, keep-with-next
    150          uint8 SampleAppFlashCounter = 0;
   \                     SampleAppFlashCounter:
   \   000000                DS 1
   \   000001                REQUIRE __INIT_XDATA_Z
    151          
    152          //变量，用在参考节点接收到数据时进行计算然后发给协调器用

   \                                 In  segment XDATA_Z, align 1, keep-with-next
    153          uint8 rssi_val[10];
   \                     rssi_val:
   \   000000                DS 10
   \   00000A                REQUIRE __INIT_XDATA_Z

   \                                 In  segment XDATA_Z, align 1, keep-with-next
    154          uint8 rssi_index = 0;
   \                     rssi_index:
   \   000000                DS 1
   \   000001                REQUIRE __INIT_XDATA_Z

   \                                 In  segment XDATA_Z, align 1, keep-with-next
    155          uint8 rssi_s[3] = {'\0'};
   \                     rssi_s:
   \   000000                DS 3
   \   000003                REQUIRE __INIT_XDATA_Z
    156          
    157          
    158          /*********************************************************************
    159           * LOCAL FUNCTIONS
    160           */
    161          void SampleApp_HandleKeys( uint8 shift, uint8 keys );
    162          void SampleApp_MessageMSGCB( afIncomingMSGPacket_t *pckt );
    163          void SampleApp_SendPeriodicMessage( void );//盲节点广播
    164          void SampleApp_SendFlashMessage( uint16 flashTime );
    165          void SampleApp_P2P_SendMessage(void);//参考节点点播
    166          /*********************************************************************
    167           * NETWORK LAYER CALLBACKS
    168           */
    169          
    170          /*********************************************************************
    171           * PUBLIC FUNCTIONS
    172           */
    173          
    174          /*********************************************************************
    175           * @fn      SampleApp_Init
    176           *
    177           * @brief   Initialization function for the Generic App Task.
    178           *          This is called during initialization and should contain
    179           *          any application specific initialization (ie. hardware
    180           *          initialization/setup, table initialization, power up
    181           *          notificaiton ... ).
    182           *
    183           * @param   task_id - the ID assigned by OSAL.  This ID should be
    184           *                    used to send messages and set timers.
    185           *
    186           * @return  none
    187           */

   \                                 In  segment BANKED_CODE, align 1, keep-with-next
    188          void SampleApp_Init( uint8 task_id )
   \                     SampleApp_Init:
    189          { 
   \   000000   74F5         MOV     A,#-0xb
   \   000002   12....       LCALL   ?BANKED_ENTER_XDATA
   \   000005                ; Saved register size: 11
   \   000005                ; Auto size: 0
   \   000005   E9           MOV     A,R1
   \   000006   FE           MOV     R6,A
    190            SampleApp_TaskID = task_id;
   \   000007   90....       MOV     DPTR,#SampleApp_TaskID
   \   00000A   F0           MOVX    @DPTR,A
    191            SampleApp_NwkState = DEV_INIT;
   \   00000B   90....       MOV     DPTR,#SampleApp_NwkState
   \   00000E   7401         MOV     A,#0x1
   \   000010   F0           MOVX    @DPTR,A
    192            SampleApp_TransID = 0;
   \   000011   90....       MOV     DPTR,#SampleApp_TransID
   \   000014   E4           CLR     A
   \   000015   F0           MOVX    @DPTR,A
    193            
    194            //------------------------配置串口---------------------------------
    195            MT_UartInit();                    //串口初始化
   \   000016                ; Setup parameters for call to function MT_UartInit
   \   000016   12....       LCALL   ??MT_UartInit?relay
    196            MT_UartRegisterTaskID(task_id);   //注册串口任务
   \   000019                ; Setup parameters for call to function MT_UartRegisterTaskID
   \   000019   EE           MOV     A,R6
   \   00001A   F9           MOV     R1,A
   \   00001B   12....       LCALL   ??MT_UartRegisterTaskID?relay
    197            HalUARTWrite(0,"UartInit OK\n", sizeof("UartInit OK\n"));
   \   00001E                ; Setup parameters for call to function HalUARTWrite
   \   00001E   7C0D         MOV     R4,#0xd
   \   000020   7D00         MOV     R5,#0x0
   \   000022   7A..         MOV     R2,#`?<Constant "UartInit OK\\n">` & 0xff
   \   000024   7B..         MOV     R3,#(`?<Constant "UartInit OK\\n">` >> 8) & 0xff
   \   000026   7900         MOV     R1,#0x0
   \   000028   12....       LCALL   ??HalUARTWrite?relay
    198            //HalUARTWrite(0,"UartInit OK\n", sizeof("UartInit OK\n")-1);
    199            //-----------------------------------------------------------------
    200            
    201            // Device hardware initialization can be added here or in main() (Zmain.c).
    202            // If the hardware is application specific - add it here.
    203            // If the hardware is other parts of the device add it in main().
    204          
    205           #if defined ( BUILD_ALL_DEVICES )
    206            // The "Demo" target is setup to have BUILD_ALL_DEVICES and HOLD_AUTO_START
    207            // We are looking at a jumper (defined in SampleAppHw.c) to be jumpered
    208            // together - if they are - we will start up a coordinator. Otherwise,
    209            // the device will start as a router.
    210            if ( readCoordinatorJumper() )
    211              zgDeviceLogicalType = ZG_DEVICETYPE_COORDINATOR;
    212            else
    213              zgDeviceLogicalType = ZG_DEVICETYPE_ROUTER;
    214          #endif // BUILD_ALL_DEVICES
    215          
    216          #if defined ( HOLD_AUTO_START )
    217            // HOLD_AUTO_START is a compile option that will surpress ZDApp
    218            //  from starting the device and wait for the application to
    219            //  start the device.
    220            ZDOInitDevice(0);
    221          #endif
    222          
    223            // Setup for the periodic message's destination address
    224            // Broadcast to everyone
    225            SampleApp_Periodic_DstAddr.addrMode = (afAddrMode_t)AddrBroadcast;
   \   00002B   90....       MOV     DPTR,#SampleApp_Periodic_DstAddr + 8
   \   00002E   740F         MOV     A,#0xf
   \   000030   F0           MOVX    @DPTR,A
    226            SampleApp_Periodic_DstAddr.endPoint = SAMPLEAPP_ENDPOINT;
   \   000031   A3           INC     DPTR
   \   000032   7414         MOV     A,#0x14
   \   000034   F0           MOVX    @DPTR,A
    227            SampleApp_Periodic_DstAddr.addr.shortAddr = 0xFFFF;//广播
   \   000035   90....       MOV     DPTR,#SampleApp_Periodic_DstAddr
   \   000038   74FF         MOV     A,#-0x1
   \   00003A   F0           MOVX    @DPTR,A
   \   00003B   A3           INC     DPTR
   \   00003C   F0           MOVX    @DPTR,A
    228          
    229            
    230            // 点播设置。定位时，参考节点与协调器之间的通讯是应该是点播，从而让协调器能够分类
    231            
    232            SampleApp_p2p_DstAddr.addrMode = (afAddrMode_t)Addr16Bit;
   \   00003D   90....       MOV     DPTR,#SampleApp_p2p_DstAddr + 8
   \   000040   7402         MOV     A,#0x2
   \   000042   F0           MOVX    @DPTR,A
    233            SampleApp_p2p_DstAddr.endPoint = SAMPLEAPP_ENDPOINT;
   \   000043   A3           INC     DPTR
   \   000044   7414         MOV     A,#0x14
   \   000046   F0           MOVX    @DPTR,A
    234            SampleApp_p2p_DstAddr.addr.shortAddr = 0x0000;//发送信息给协调器
   \   000047   90....       MOV     DPTR,#SampleApp_p2p_DstAddr
   \   00004A   E4           CLR     A
   \   00004B   F0           MOVX    @DPTR,A
   \   00004C   A3           INC     DPTR
   \   00004D   F0           MOVX    @DPTR,A
    235            
    236            // Setup for the flash command's destination address - Group 1
    237            SampleApp_Flash_DstAddr.addrMode = (afAddrMode_t)afAddrGroup;
   \   00004E   90....       MOV     DPTR,#SampleApp_Flash_DstAddr + 8
   \   000051   04           INC     A
   \   000052   F0           MOVX    @DPTR,A
    238            SampleApp_Flash_DstAddr.endPoint = SAMPLEAPP_ENDPOINT;
   \   000053   A3           INC     DPTR
   \   000054   7414         MOV     A,#0x14
   \   000056   F0           MOVX    @DPTR,A
    239            SampleApp_Flash_DstAddr.addr.shortAddr = SAMPLEAPP_FLASH_GROUP;
   \   000057   90....       MOV     DPTR,#SampleApp_Flash_DstAddr
   \   00005A   7401         MOV     A,#0x1
   \   00005C   F0           MOVX    @DPTR,A
   \   00005D   A3           INC     DPTR
   \   00005E   E4           CLR     A
   \   00005F   F0           MOVX    @DPTR,A
    240          
    241            // Fill out the endpoint description.
    242            SampleApp_epDesc.endPoint = SAMPLEAPP_ENDPOINT;
   \   000060   90....       MOV     DPTR,#SampleApp_epDesc
   \   000063   7414         MOV     A,#0x14
   \   000065   F0           MOVX    @DPTR,A
    243            SampleApp_epDesc.task_id = &SampleApp_TaskID;
   \   000066   A3           INC     DPTR
   \   000067   74..         MOV     A,#SampleApp_TaskID & 0xff
   \   000069   F0           MOVX    @DPTR,A
   \   00006A   A3           INC     DPTR
   \   00006B   74..         MOV     A,#(SampleApp_TaskID >> 8) & 0xff
   \   00006D   F0           MOVX    @DPTR,A
    244            SampleApp_epDesc.simpleDesc
    245                      = (SimpleDescriptionFormat_t *)&SampleApp_SimpleDesc;
   \   00006E   A3           INC     DPTR
   \   00006F   74..         MOV     A,#SampleApp_SimpleDesc & 0xff
   \   000071   F0           MOVX    @DPTR,A
   \   000072   A3           INC     DPTR
   \   000073   74..         MOV     A,#(SampleApp_SimpleDesc >> 8) & 0xff
   \   000075   F0           MOVX    @DPTR,A
    246            SampleApp_epDesc.latencyReq = noLatencyReqs;
   \   000076   A3           INC     DPTR
   \   000077   E4           CLR     A
   \   000078   F0           MOVX    @DPTR,A
    247          
    248            // Register the endpoint description with the AF
    249            afRegister( &SampleApp_epDesc );
   \   000079                ; Setup parameters for call to function afRegister
   \   000079   7A..         MOV     R2,#SampleApp_epDesc & 0xff
   \   00007B   7B..         MOV     R3,#(SampleApp_epDesc >> 8) & 0xff
   \   00007D   12....       LCALL   ??afRegister?relay
    250          
    251            // Register for all key events - This app will handle all key events
    252            RegisterForKeys( SampleApp_TaskID );
   \   000080                ; Setup parameters for call to function RegisterForKeys
   \   000080   90....       MOV     DPTR,#SampleApp_TaskID
   \   000083   E0           MOVX    A,@DPTR
   \   000084   F9           MOV     R1,A
   \   000085   12....       LCALL   ??RegisterForKeys?relay
    253          
    254            // By default, all devices start out in Group 1
    255            SampleApp_Group.ID = 0x0001;
   \   000088   90....       MOV     DPTR,#SampleApp_Group
   \   00008B   7401         MOV     A,#0x1
   \   00008D   F0           MOVX    @DPTR,A
   \   00008E   A3           INC     DPTR
   \   00008F   E4           CLR     A
   \   000090   F0           MOVX    @DPTR,A
    256            osal_memcpy( SampleApp_Group.name, "Group 1", 7  );
   \   000091                ; Setup parameters for call to function osal_memcpy
   \   000091   75....       MOV     ?V0 + 0,#`?<Constant "Group 1">` & 0xff
   \   000094   75....       MOV     ?V0 + 1,#(`?<Constant "Group 1">` >> 8) & 0xff
   \   000097   F5..         MOV     ?V0 + 2,A
   \   000099   78..         MOV     R0,#?V0 + 0
   \   00009B   12....       LCALL   ?PUSH_XSTACK_I_THREE
   \   00009E   7C07         MOV     R4,#0x7
   \   0000A0   7D00         MOV     R5,#0x0
   \   0000A2   7A..         MOV     R2,#(SampleApp_Group + 2) & 0xff
   \   0000A4   7B..         MOV     R3,#((SampleApp_Group + 2) >> 8) & 0xff
   \   0000A6   12....       LCALL   ??osal_memcpy?relay
   \   0000A9   7403         MOV     A,#0x3
   \   0000AB   12....       LCALL   ?DEALLOC_XSTACK8
    257            aps_AddGroup( SAMPLEAPP_ENDPOINT, &SampleApp_Group );
   \   0000AE                ; Setup parameters for call to function aps_AddGroup
   \   0000AE   7A..         MOV     R2,#SampleApp_Group & 0xff
   \   0000B0   7B..         MOV     R3,#(SampleApp_Group >> 8) & 0xff
   \   0000B2   7914         MOV     R1,#0x14
   \   0000B4   12....       LCALL   ??aps_AddGroup?relay
    258          
    259          #if defined ( LCD_SUPPORTED )
    260            HalLcdWriteString( "SampleApp", HAL_LCD_LINE_1 );
   \   0000B7                ; Setup parameters for call to function HalLcdWriteString
   \   0000B7   7901         MOV     R1,#0x1
   \   0000B9   7A..         MOV     R2,#`?<Constant "SampleApp">` & 0xff
   \   0000BB   7B..         MOV     R3,#(`?<Constant "SampleApp">` >> 8) & 0xff
   \   0000BD   12....       LCALL   ??HalLcdWriteString?relay
    261          #endif
    262          }
   \   0000C0   7F03         MOV     R7,#0x3
   \   0000C2   02....       LJMP    ?BANKED_LEAVE_XDATA
    263          
    264          /*********************************************************************
    265           * @fn      SampleApp_ProcessEvent
    266           *
    267           * @brief   Generic Application Task event processor.  This function
    268           *          is called to process all events for the task.  Events
    269           *          include timers, messages and any other user defined events.
    270           *
    271           * @param   task_id  - The OSAL assigned task ID.
    272           * @param   events - events to process.  This is a bit map and can
    273           *                   contain more than one event.
    274           *
    275           * @return  none
    276           */

   \                                 In  segment BANKED_CODE, align 1, keep-with-next
    277          uint16 SampleApp_ProcessEvent( uint8 task_id, uint16 events )
   \                     SampleApp_ProcessEvent:
    278          {
   \   000000   74F4         MOV     A,#-0xc
   \   000002   12....       LCALL   ?BANKED_ENTER_XDATA
   \   000005                ; Saved register size: 12
   \   000005                ; Auto size: 0
   \   000005   EA           MOV     A,R2
   \   000006   FE           MOV     R6,A
   \   000007   EB           MOV     A,R3
   \   000008   FF           MOV     R7,A
    279            afIncomingMSGPacket_t *MSGpkt;
    280            (void)task_id;  // Intentionally unreferenced parameter
    281          
    282            if ( events & SYS_EVENT_MSG )
   \   000009   5480         ANL     A,#0x80
   \   00000B   6074         JZ      ??SampleApp_ProcessEvent_0
    283            {
    284              MSGpkt = (afIncomingMSGPacket_t *)osal_msg_receive( SampleApp_TaskID );
   \   00000D                ; Setup parameters for call to function osal_msg_receive
   \   00000D   8026         SJMP    ??SampleApp_ProcessEvent_1
    285              while ( MSGpkt )
    286              {
    287                switch ( MSGpkt->hdr.event )
    288                {
    289                  // Received when a key is pressed
    290                  case KEY_CHANGE:
    291                    SampleApp_HandleKeys( ((keyChange_t *)MSGpkt)->state, ((keyChange_t *)MSGpkt)->keys );
    292                    break;
    293          
    294                  // Received when a messages is received (OTA) for this endpoint
    295                  case AF_INCOMING_MSG_CMD:
    296                    SampleApp_MessageMSGCB( MSGpkt );
    297                    break;
    298          
    299                  // Received whenever the device changes state in the network
    300                  case ZDO_STATE_CHANGE:
    301                    SampleApp_NwkState = (devStates_t)(MSGpkt->hdr.status);
   \                     ??SampleApp_ProcessEvent_2:
   \   00000F   A3           INC     DPTR
   \   000010   E0           MOVX    A,@DPTR
   \   000011   90....       MOV     DPTR,#SampleApp_NwkState
   \   000014   F0           MOVX    @DPTR,A
    302                    if ( //(SampleApp_NwkState == DEV_ZB_COORD)|| //协调器只接收不发送
    303                        (SampleApp_NwkState == DEV_ROUTER)
    304                        || (SampleApp_NwkState == DEV_END_DEVICE) )
   \   000015   6407         XRL     A,#0x7
   \   000017   6005         JZ      ??SampleApp_ProcessEvent_3
   \   000019   E0           MOVX    A,@DPTR
   \   00001A   6406         XRL     A,#0x6
   \   00001C   7010         JNZ     ??SampleApp_ProcessEvent_4
    305                    {
    306                      // Start sending the periodic message in a regular interval.
    307                      osal_start_timerEx( SampleApp_TaskID,
    308                                        SAMPLEAPP_SEND_PERIODIC_MSG_EVT,
    309                                        SAMPLEAPP_SEND_PERIODIC_MSG_TIMEOUT );
   \                     ??SampleApp_ProcessEvent_3:
   \   00001E                ; Setup parameters for call to function osal_start_timerEx
   \   00001E   7CE8         MOV     R4,#-0x18
   \   000020   7D03         MOV     R5,#0x3
   \   000022   7A01         MOV     R2,#0x1
   \   000024   7B00         MOV     R3,#0x0
   \   000026   90....       MOV     DPTR,#SampleApp_TaskID
   \   000029   E0           MOVX    A,@DPTR
   \   00002A   F9           MOV     R1,A
   \   00002B   12....       LCALL   ??osal_start_timerEx?relay
    310                    }
    311                    else
    312                    {
    313                      // Device is no longer in the network
    314                    }
    315                    break;
    316          
    317                  default:
    318                    break;
    319                }
    320          
    321                // Release the memory
    322                osal_msg_deallocate( (uint8 *)MSGpkt );
   \                     ??SampleApp_ProcessEvent_4:
   \   00002E                ; Setup parameters for call to function osal_msg_deallocate
   \   00002E   AA..         MOV     R2,?V0 + 0
   \   000030   AB..         MOV     R3,?V0 + 1
   \   000032   12....       LCALL   ??osal_msg_deallocate?relay
    323          
    324                // Next - if one is available
    325                MSGpkt = (afIncomingMSGPacket_t *)osal_msg_receive( SampleApp_TaskID );
   \   000035                ; Setup parameters for call to function osal_msg_receive
   \                     ??SampleApp_ProcessEvent_1:
   \   000035   90....       MOV     DPTR,#SampleApp_TaskID
   \   000038   E0           MOVX    A,@DPTR
   \   000039   F9           MOV     R1,A
   \   00003A   12....       LCALL   ??osal_msg_receive?relay
   \   00003D   8A..         MOV     ?V0 + 0,R2
   \   00003F   8B..         MOV     ?V0 + 1,R3
   \   000041   E5..         MOV     A,?V0 + 0
   \   000043   45..         ORL     A,?V0 + 1
   \   000045   6032         JZ      ??SampleApp_ProcessEvent_5
   \   000047   85..82       MOV     DPL,?V0 + 0
   \   00004A   85..83       MOV     DPH,?V0 + 1
   \   00004D   E0           MOVX    A,@DPTR
   \   00004E   24E6         ADD     A,#-0x1a
   \   000050   601E         JZ      ??SampleApp_ProcessEvent_6
   \   000052   245A         ADD     A,#0x5a
   \   000054   6006         JZ      ??SampleApp_ProcessEvent_7
   \   000056   24EF         ADD     A,#-0x11
   \   000058   60B5         JZ      ??SampleApp_ProcessEvent_2
   \   00005A   80D2         SJMP    ??SampleApp_ProcessEvent_4
   \                     ??SampleApp_ProcessEvent_7:
   \   00005C                ; Setup parameters for call to function SampleApp_HandleKeys
   \   00005C   A3           INC     DPTR
   \   00005D   A3           INC     DPTR
   \   00005E   A3           INC     DPTR
   \   00005F   E0           MOVX    A,@DPTR
   \   000060   FA           MOV     R2,A
   \   000061   85..82       MOV     DPL,?V0 + 0
   \   000064   85..83       MOV     DPH,?V0 + 1
   \   000067   A3           INC     DPTR
   \   000068   A3           INC     DPTR
   \   000069   E0           MOVX    A,@DPTR
   \   00006A   F9           MOV     R1,A
   \   00006B   12....       LCALL   ??SampleApp_HandleKeys?relay
   \   00006E   80BE         SJMP    ??SampleApp_ProcessEvent_4
   \                     ??SampleApp_ProcessEvent_6:
   \   000070                ; Setup parameters for call to function SampleApp_MessageMSGCB
   \   000070   AA..         MOV     R2,?V0 + 0
   \   000072   AB..         MOV     R3,?V0 + 1
   \   000074   12....       LCALL   ??SampleApp_MessageMSGCB?relay
   \   000077   80B5         SJMP    ??SampleApp_ProcessEvent_4
    326              }
    327          
    328              // return unprocessed events
    329              return (events ^ SYS_EVENT_MSG);
   \                     ??SampleApp_ProcessEvent_5:
   \   000079   EE           MOV     A,R6
   \   00007A   FA           MOV     R2,A
   \   00007B   EF           MOV     A,R7
   \   00007C   6480         XRL     A,#0x80
   \                     ??SampleApp_ProcessEvent_8:
   \   00007E   FB           MOV     R3,A
   \   00007F   8032         SJMP    ??SampleApp_ProcessEvent_9
    330            }
    331          
    332            // Send a message out - This event is generated by a timer
    333            //  (setup in SampleApp_Init()).
    334            if ( events & SAMPLEAPP_SEND_PERIODIC_MSG_EVT )//参考节点不广播的！
   \                     ??SampleApp_ProcessEvent_0:
   \   000081   EE           MOV     A,R6
   \   000082   A2E0         MOV     C,0xE0 /* A   */.0
   \   000084   5029         JNC     ??SampleApp_ProcessEvent_10
    335            {
    336              if(zgDeviceLogicalType == ZG_DEVICETYPE_ENDDEVICE)//如果是终端就广播
   \   000086   90....       MOV     DPTR,#zgDeviceLogicalType
   \   000089   E0           MOVX    A,@DPTR
   \   00008A   6402         XRL     A,#0x2
   \   00008C   7021         JNZ     ??SampleApp_ProcessEvent_10
    337              {
    338                // Send the periodic message
    339              SampleApp_SendPeriodicMessage();
   \   00008E                ; Setup parameters for call to function SampleApp_SendPeriodicMessage
   \   00008E   12....       LCALL   ??SampleApp_SendPeriodicMessage?relay
    340          
    341              // Setup to send message again in normal period (+ a little jitter)
    342              osal_start_timerEx( SampleApp_TaskID, SAMPLEAPP_SEND_PERIODIC_MSG_EVT,
    343                  (SAMPLEAPP_SEND_PERIODIC_MSG_TIMEOUT + (osal_rand() & 0x00FF)) );
   \   000091                ; Setup parameters for call to function osal_rand
   \   000091   12....       LCALL   ??osal_rand?relay
   \   000094                ; Setup parameters for call to function osal_start_timerEx
   \   000094   EA           MOV     A,R2
   \   000095   24E8         ADD     A,#-0x18
   \   000097   FC           MOV     R4,A
   \   000098   E4           CLR     A
   \   000099   3403         ADDC    A,#0x3
   \   00009B   FD           MOV     R5,A
   \   00009C   7A01         MOV     R2,#0x1
   \   00009E   7B00         MOV     R3,#0x0
   \   0000A0   90....       MOV     DPTR,#SampleApp_TaskID
   \   0000A3   E0           MOVX    A,@DPTR
   \   0000A4   F9           MOV     R1,A
   \   0000A5   12....       LCALL   ??osal_start_timerEx?relay
    344          
    345              // return unprocessed events
    346              return (events ^ SAMPLEAPP_SEND_PERIODIC_MSG_EVT);
   \   0000A8   EE           MOV     A,R6
   \   0000A9   6401         XRL     A,#0x1
   \   0000AB   FA           MOV     R2,A
   \   0000AC   EF           MOV     A,R7
   \   0000AD   80CF         SJMP    ??SampleApp_ProcessEvent_8
    347              }
    348              
    349            }
    350          
    351            // Discard unknown events
    352            return 0;
   \                     ??SampleApp_ProcessEvent_10:
   \   0000AF   7A00         MOV     R2,#0x0
   \   0000B1   7B00         MOV     R3,#0x0
   \                     ??SampleApp_ProcessEvent_9:
   \   0000B3                REQUIRE ?Subroutine0
   \   0000B3                ; // Fall through to label ?Subroutine0
    353          }

   \                                 In  segment BANKED_CODE, align 1, keep-with-next
   \                     ?Subroutine0:
   \   000000   7F04         MOV     R7,#0x4
   \   000002   02....       LJMP    ?BANKED_LEAVE_XDATA
    354          
    355          /*********************************************************************
    356           * Event Generation Functions
    357           */
    358          /*********************************************************************
    359           * @fn      SampleApp_HandleKeys
    360           *
    361           * @brief   Handles all key events for this device.
    362           *
    363           * @param   shift - true if in shift/alt.
    364           * @param   keys - bit field for key events. Valid entries:
    365           *                 HAL_KEY_SW_2
    366           *                 HAL_KEY_SW_1
    367           *
    368           * @return  none
    369           */

   \                                 In  segment BANKED_CODE, align 1, keep-with-next
    370          void SampleApp_HandleKeys( uint8 shift, uint8 keys )
   \                     SampleApp_HandleKeys:
    371          {
   \   000000   74F6         MOV     A,#-0xa
   \   000002   12....       LCALL   ?BANKED_ENTER_XDATA
   \   000005                ; Saved register size: 10
   \   000005                ; Auto size: 0
   \   000005   EA           MOV     A,R2
   \   000006   FE           MOV     R6,A
    372            (void)shift;  // Intentionally unreferenced parameter
    373            
    374            if ( keys & HAL_KEY_SW_1 )
   \   000007   A2E0         MOV     C,0xE0 /* A   */.0
   \   000009   5007         JNC     ??SampleApp_HandleKeys_0
    375            {
    376              /* This key sends the Flash Command is sent to Group 1.
    377               * This device will not receive the Flash Command from this
    378               * device (even if it belongs to group 1).
    379               */
    380              SampleApp_SendFlashMessage( SAMPLEAPP_FLASH_DURATION );
   \   00000B                ; Setup parameters for call to function SampleApp_SendFlashMessage
   \   00000B   7AE8         MOV     R2,#-0x18
   \   00000D   7B03         MOV     R3,#0x3
   \   00000F   12....       LCALL   ??SampleApp_SendFlashMessage?relay
    381            }
    382          
    383            if ( keys & HAL_KEY_SW_2 )
   \                     ??SampleApp_HandleKeys_0:
   \   000012   EE           MOV     A,R6
   \   000013   A2E1         MOV     C,0xE0 /* A   */.1
   \   000015   5024         JNC     ??SampleApp_HandleKeys_1
    384            {
    385              /* The Flashr Command is sent to Group 1.
    386               * This key toggles this device in and out of group 1.
    387               * If this device doesn't belong to group 1, this application
    388               * will not receive the Flash command sent to group 1.
    389               */
    390              aps_Group_t *grp;
    391              grp = aps_FindGroup( SAMPLEAPP_ENDPOINT, SAMPLEAPP_FLASH_GROUP );
    392              if ( grp )
   \   000017                ; Setup parameters for call to function aps_FindGroup
   \   000017   7A01         MOV     R2,#0x1
   \   000019   7B00         MOV     R3,#0x0
   \   00001B   7914         MOV     R1,#0x14
   \   00001D   12....       LCALL   ??aps_FindGroup?relay
   \   000020   8B..         MOV     ?V0 + 1,R3
   \   000022   EA           MOV     A,R2
   \   000023   45..         ORL     A,?V0 + 1
   \   000025   600B         JZ      ??SampleApp_HandleKeys_2
    393              {
    394                // Remove from the group
    395                aps_RemoveGroup( SAMPLEAPP_ENDPOINT, SAMPLEAPP_FLASH_GROUP );
   \   000027                ; Setup parameters for call to function aps_RemoveGroup
   \   000027   7A01         MOV     R2,#0x1
   \   000029   7B00         MOV     R3,#0x0
   \   00002B   7914         MOV     R1,#0x14
   \   00002D   12....       LCALL   ??aps_RemoveGroup?relay
   \   000030   8009         SJMP    ??SampleApp_HandleKeys_1
    396              }
    397              else
    398              {
    399                // Add to the flash group
    400                aps_AddGroup( SAMPLEAPP_ENDPOINT, &SampleApp_Group );
   \                     ??SampleApp_HandleKeys_2:
   \   000032                ; Setup parameters for call to function aps_AddGroup
   \   000032   7A..         MOV     R2,#SampleApp_Group & 0xff
   \   000034   7B..         MOV     R3,#(SampleApp_Group >> 8) & 0xff
   \   000036   7914         MOV     R1,#0x14
   \   000038   12....       LCALL   ??aps_AddGroup?relay
    401              }
    402            }
    403          }
   \                     ??SampleApp_HandleKeys_1:
   \   00003B   02....       LJMP    ??Subroutine5_0 & 0xFFFF

   \                                 In  segment BANKED_CODE, align 1, keep-with-next
   \                     ??Subroutine5_0:
   \   000000   7F02         MOV     R7,#0x2
   \   000002   02....       LJMP    ?BANKED_LEAVE_XDATA
    404          
    405          /*********************************************************************
    406           * LOCAL FUNCTIONS
    407           */
    408          
    409          /*********************************************************************
    410           * @fn      SampleApp_MessageMSGCB
    411           *
    412           * @brief   Data message processor callback.  This function processes
    413           *          any incoming data - probably from other devices.  So, based
    414           *          on cluster ID, perform the intended action.
    415           *
    416           * @param   none
    417           *
    418           * @return  none
    419           */

   \                                 In  segment BANKED_CODE, align 1, keep-with-next
    420          void SampleApp_MessageMSGCB( afIncomingMSGPacket_t *pkt )
   \                     SampleApp_MessageMSGCB:
    421          {
   \   000000   74F4         MOV     A,#-0xc
   \   000002   12....       LCALL   ?BANKED_ENTER_XDATA
   \   000005                ; Saved register size: 12
   \   000005                ; Auto size: 0
   \   000005   EA           MOV     A,R2
   \   000006   FE           MOV     R6,A
   \   000007   EB           MOV     A,R3
   \   000008   FF           MOV     R7,A
    422            uint16 flashTime;
    423          
    424            switch ( pkt->clusterId )
   \   000009   8E82         MOV     DPL,R6
   \   00000B   8F83         MOV     DPH,R7
   \   00000D   A3           INC     DPTR
   \   00000E   A3           INC     DPTR
   \   00000F   A3           INC     DPTR
   \   000010   A3           INC     DPTR
   \   000011   E0           MOVX    A,@DPTR
   \   000012   F5..         MOV     ?V0 + 0,A
   \   000014   A3           INC     DPTR
   \   000015   E0           MOVX    A,@DPTR
   \   000016   F5..         MOV     ?V0 + 1,A
   \   000018   78..         MOV     R0,#?V0 + 0
   \   00001A   12....       LCALL   ?US_SWITCH_DENSE
   \                     `?<Jumptable for SampleApp_MessageMSGCB>_0`:
   \   00001D   0100         DW        1
   \   00001F   04           DB        4
   \   000020   ....         DW        ??SampleApp_MessageMSGCB_0
   \   000022   ....         DW        ??SampleApp_MessageMSGCB_1
   \   000024   ....         DW        ??SampleApp_MessageMSGCB_2
   \   000026   ....         DW        ??SampleApp_MessageMSGCB_3
   \   000028   ....         DW        ??SampleApp_MessageMSGCB_4
   \   00002A   ....         DW        ??SampleApp_MessageMSGCB_5
    425            {
    426              case SAMPLEAPP_BLIND_CLUSTERID://参考节点接收盲节点数据进行处理
    427                if(zgDeviceLogicalType == ZG_DEVICETYPE_ROUTER)
   \                     ??SampleApp_MessageMSGCB_1:
   \   00002C   90....       MOV     DPTR,#zgDeviceLogicalType
   \   00002F   E0           MOVX    A,@DPTR
   \   000030   6401         XRL     A,#0x1
   \   000032   6003         JZ      $+5
   \   000034   02....       LJMP    ??SampleApp_MessageMSGCB_0 & 0xFFFF
    428                {
    429                rssi_val[rssi_index++] = ((~pkt->rssi)+1); // 得到rssi值并保存   
   \   000037   EE           MOV     A,R6
   \   000038   2418         ADD     A,#0x18
   \   00003A   F582         MOV     DPL,A
   \   00003C   EF           MOV     A,R7
   \   00003D   12....       LCALL   ??Subroutine4_0 & 0xFFFF
   \                     ??CrossCallReturnLabel_0:
   \   000040   F4           CPL     A
   \   000041   04           INC     A
   \   000042   C0E0         PUSH    A
   \   000044   90....       MOV     DPTR,#rssi_index
   \   000047   E0           MOVX    A,@DPTR
   \   000048   F8           MOV     R0,A
   \   000049   74..         MOV     A,#rssi_val & 0xff
   \   00004B   28           ADD     A,R0
   \   00004C   F582         MOV     DPL,A
   \   00004E   74..         MOV     A,#(rssi_val >> 8) & 0xff
   \   000050   3400         ADDC    A,#0x0
   \   000052   F583         MOV     DPH,A
   \   000054   D0E0         POP     A
   \   000056   F0           MOVX    @DPTR,A
   \   000057   90....       MOV     DPTR,#rssi_index
   \   00005A   E0           MOVX    A,@DPTR
   \   00005B   04           INC     A
   \   00005C   F0           MOVX    @DPTR,A
    430                if(rssi_index == 10)//当接收到10次rssi后进行平均值计算
   \   00005D   640A         XRL     A,#0xa
   \   00005F   6003         JZ      $+5
   \   000061   02....       LJMP    ??SampleApp_MessageMSGCB_0 & 0xFFFF
    431                {   
    432                  uint8 i,max_i,min_i; 
    433                  uint16 val = 0;
   \   000064   7C00         MOV     R4,#0x0
   \   000066   7D00         MOV     R5,#0x0
    434                  //去除最大最小值，剩下的求取平均值
    435                  max_i = min_i = 0;          
   \   000068   8C..         MOV     ?V0 + 1,R4
   \   00006A   8C..         MOV     ?V0 + 0,R4
    436                  for(i = 1; i<10; i++)
   \   00006C   7801         MOV     R0,#0x1
    437                  {
    438                    if(rssi_val[i]>rssi_val[max_i])
   \                     ??SampleApp_MessageMSGCB_6:
   \   00006E   12....       LCALL   ?Subroutine2 & 0xFFFF
   \                     ??CrossCallReturnLabel_6:
   \   000071   F9           MOV     R1,A
   \   000072   85....       MOV     ?V0 + 2,?V0 + 0
   \   000075   12....       LCALL   ??Subroutine3_0 & 0xFFFF
   \                     ??CrossCallReturnLabel_4:
   \   000078   C3           CLR     C
   \   000079   99           SUBB    A,R1
   \   00007A   5002         JNC     ??SampleApp_MessageMSGCB_7
    439                      max_i = i;              
   \   00007C   88..         MOV     ?V0 + 0,R0
    440                    if(rssi_val[i]<rssi_val[min_i])
   \                     ??SampleApp_MessageMSGCB_7:
   \   00007E   85....       MOV     ?V0 + 2,?V0 + 1
   \   000081   12....       LCALL   ??Subroutine3_0 & 0xFFFF
   \                     ??CrossCallReturnLabel_5:
   \   000084   F9           MOV     R1,A
   \   000085   12....       LCALL   ?Subroutine2 & 0xFFFF
   \                     ??CrossCallReturnLabel_7:
   \   000088   C3           CLR     C
   \   000089   99           SUBB    A,R1
   \   00008A   5002         JNC     ??SampleApp_MessageMSGCB_8
    441                      min_i = i;
   \   00008C   88..         MOV     ?V0 + 1,R0
    442                 }          
   \                     ??SampleApp_MessageMSGCB_8:
   \   00008E   08           INC     R0
   \   00008F   E8           MOV     A,R0
   \   000090   C3           CLR     C
   \   000091   940A         SUBB    A,#0xa
   \   000093   40D9         JC      ??SampleApp_MessageMSGCB_6
    443                  for(i = 0; i<10; i++)
   \   000095   7800         MOV     R0,#0x0
    444                  {
    445                    if(i!=max_i && i!=min_i)
   \                     ??SampleApp_MessageMSGCB_9:
   \   000097   E5..         MOV     A,?V0 + 0
   \   000099   68           XRL     A,R0
   \   00009A   6010         JZ      ??SampleApp_MessageMSGCB_10
   \   00009C   E5..         MOV     A,?V0 + 1
   \   00009E   68           XRL     A,R0
   \   00009F   600B         JZ      ??SampleApp_MessageMSGCB_10
    446                      val+=rssi_val[i];//去除最大最小值之后的8次rssi值的总和
   \   0000A1   12....       LCALL   ?Subroutine2 & 0xFFFF
    447                  }          
   \                     ??CrossCallReturnLabel_8:
   \   0000A4   FA           MOV     R2,A
   \   0000A5   EC           MOV     A,R4
   \   0000A6   2A           ADD     A,R2
   \   0000A7   FC           MOV     R4,A
   \   0000A8   ED           MOV     A,R5
   \   0000A9   3400         ADDC    A,#0x0
   \   0000AB   FD           MOV     R5,A
   \                     ??SampleApp_MessageMSGCB_10:
   \   0000AC   08           INC     R0
   \   0000AD   E8           MOV     A,R0
   \   0000AE   C3           CLR     C
   \   0000AF   940A         SUBB    A,#0xa
   \   0000B1   40E4         JC      ??SampleApp_MessageMSGCB_9
    448                  val >>= 3;//右移为除法，右移三维表示除以8（val为8次RSSI值的和）
   \   0000B3   8C..         MOV     ?V0 + 2,R4
   \   0000B5   8D..         MOV     ?V0 + 3,R5
   \   0000B7   7403         MOV     A,#0x3
   \   0000B9   78..         MOV     R0,#?V0 + 2
   \   0000BB   12....       LCALL   ?US_SHR
   \   0000BE   AC..         MOV     R4,?V0 + 2
   \   0000C0   AD..         MOV     R5,?V0 + 3
    449                
    450                  //      rssi_s[0] ='A';
    451                  rssi_s[0] = val/100+0x30;//ASCII编码 0x30对应数字0 这里加上这个数就是要显示数字字符
   \   0000C2   EC           MOV     A,R4
   \   0000C3   F8           MOV     R0,A
   \   0000C4   ED           MOV     A,R5
   \   0000C5   F9           MOV     R1,A
   \   0000C6   7A64         MOV     R2,#0x64
   \   0000C8   7B00         MOV     R3,#0x0
   \   0000CA   12....       LCALL   ?US_DIV_MOD
   \   0000CD   E8           MOV     A,R0
   \   0000CE   2430         ADD     A,#0x30
   \   0000D0   90....       MOV     DPTR,#rssi_s
   \   0000D3   F0           MOVX    @DPTR,A
    452                  rssi_s[1] = val%100/10+0x30;
   \   0000D4   EC           MOV     A,R4
   \   0000D5   F8           MOV     R0,A
   \   0000D6   ED           MOV     A,R5
   \   0000D7   F9           MOV     R1,A
   \   0000D8   7A64         MOV     R2,#0x64
   \   0000DA   7B00         MOV     R3,#0x0
   \   0000DC   12....       LCALL   ?US_DIV_MOD
   \   0000DF   EA           MOV     A,R2
   \   0000E0   F8           MOV     R0,A
   \   0000E1   EB           MOV     A,R3
   \   0000E2   F9           MOV     R1,A
   \   0000E3   7A0A         MOV     R2,#0xa
   \   0000E5   7B00         MOV     R3,#0x0
   \   0000E7   12....       LCALL   ?US_DIV_MOD
   \   0000EA   E8           MOV     A,R0
   \   0000EB   2430         ADD     A,#0x30
   \   0000ED   A3           INC     DPTR
   \   0000EE   F0           MOVX    @DPTR,A
    453                  rssi_s[2] = val%10+0x30;//以上三句分别代表得到：米，分米，厘米 
   \   0000EF   EC           MOV     A,R4
   \   0000F0   F8           MOV     R0,A
   \   0000F1   ED           MOV     A,R5
   \   0000F2   F9           MOV     R1,A
   \   0000F3   7A0A         MOV     R2,#0xa
   \   0000F5   7B00         MOV     R3,#0x0
   \   0000F7   12....       LCALL   ?US_DIV_MOD
   \   0000FA   EA           MOV     A,R2
   \   0000FB   2430         ADD     A,#0x30
   \   0000FD   A3           INC     DPTR
   \   0000FE   F0           MOVX    @DPTR,A
    454          
    455                  SampleApp_P2P_SendMessage();
   \   0000FF                ; Setup parameters for call to function SampleApp_P2P_SendMessage
   \   0000FF   12....       LCALL   ??SampleApp_P2P_SendMessage?relay
    456                  rssi_index = 0;//每收到十次RSSI值计算一次需要的RSSI均值
   \   000102   90....       MOV     DPTR,#rssi_index
   \   000105   E4           CLR     A
   \   000106   F0           MOVX    @DPTR,A
   \   000107   02....       LJMP    ??SampleApp_MessageMSGCB_0 & 0xFFFF
    457          
    458                
    459                }
    460                }
    461          
    462                
    463                
    464                break;
    465                  //确定只有协调器进行编译
    466            case SAMPLEAPP_ROUT_ANODE_CLUSTERID://协调器从锚节点接收数据
    467              if(zgDeviceLogicalType == ZG_DEVICETYPE_COORDINATOR)
   \                     ??SampleApp_MessageMSGCB_3:
   \   00010A   90....       MOV     DPTR,#zgDeviceLogicalType
   \   00010D   E0           MOVX    A,@DPTR
   \   00010E   6003         JZ      $+5
   \   000110   02....       LJMP    ??SampleApp_MessageMSGCB_0 & 0xFFFF
    468              {
    469                HalUARTWrite(0,"A",1);
   \   000113                ; Setup parameters for call to function HalUARTWrite
   \   000113   7C01         MOV     R4,#0x1
   \   000115   7D00         MOV     R5,#0x0
   \   000117   7A..         MOV     R2,#`?<Constant "A">` & 0xff
   \   000119   7B..         MOV     R3,#(`?<Constant "A">` >> 8) & 0xff
   \                     ??SampleApp_MessageMSGCB_11:
   \   00011B   7900         MOV     R1,#0x0
   \   00011D   12....       LCALL   ??HalUARTWrite?relay
    470                HalUARTWrite(0,pkt->cmd.Data,pkt->cmd.DataLength); //输出接收到的数据 
   \   000120                ; Setup parameters for call to function HalUARTWrite
   \   000120   EE           MOV     A,R6
   \   000121   2420         ADD     A,#0x20
   \   000123   F582         MOV     DPL,A
   \   000125   EF           MOV     A,R7
   \   000126   12....       LCALL   ??Subroutine4_0 & 0xFFFF
   \                     ??CrossCallReturnLabel_1:
   \   000129   FC           MOV     R4,A
   \   00012A   A3           INC     DPTR
   \   00012B   E0           MOVX    A,@DPTR
   \   00012C   FD           MOV     R5,A
   \   00012D   EE           MOV     A,R6
   \   00012E   2422         ADD     A,#0x22
   \   000130   F582         MOV     DPL,A
   \   000132   EF           MOV     A,R7
   \   000133   12....       LCALL   ??Subroutine4_0 & 0xFFFF
   \                     ??CrossCallReturnLabel_2:
   \   000136   FA           MOV     R2,A
   \   000137   A3           INC     DPTR
   \   000138   E0           MOVX    A,@DPTR
   \   000139   FB           MOV     R3,A
   \   00013A   7900         MOV     R1,#0x0
   \   00013C   12....       LCALL   ??HalUARTWrite?relay
    471                HalUARTWrite(0,"\n", 1); // 回车换行 
   \   00013F                ; Setup parameters for call to function HalUARTWrite
   \   00013F   7C01         MOV     R4,#0x1
   \   000141   7D00         MOV     R5,#0x0
   \   000143   7A..         MOV     R2,#`?<Constant "\\n">` & 0xff
   \   000145   7B..         MOV     R3,#(`?<Constant "\\n">` >> 8) & 0xff
   \   000147   7900         MOV     R1,#0x0
   \   000149   12....       LCALL   ??HalUARTWrite?relay
   \   00014C   8059         SJMP    ??SampleApp_MessageMSGCB_0
    472              }
    473              
    474              break;
    475            case SAMPLEAPP_ROUT_BNODE_CLUSTERID://协调器从锚节点接收数据
    476              if(zgDeviceLogicalType == ZG_DEVICETYPE_COORDINATOR)
   \                     ??SampleApp_MessageMSGCB_4:
   \   00014E   90....       MOV     DPTR,#zgDeviceLogicalType
   \   000151   E0           MOVX    A,@DPTR
   \   000152   7053         JNZ     ??SampleApp_MessageMSGCB_0
    477              {
    478                HalUARTWrite(0,"B",1);
   \   000154                ; Setup parameters for call to function HalUARTWrite
   \   000154   7C01         MOV     R4,#0x1
   \   000156   7D00         MOV     R5,#0x0
   \   000158   7A..         MOV     R2,#`?<Constant "B">` & 0xff
   \   00015A   7B..         MOV     R3,#(`?<Constant "B">` >> 8) & 0xff
   \   00015C   80BD         SJMP    ??SampleApp_MessageMSGCB_11
    479                HalUARTWrite(0,pkt->cmd.Data,pkt->cmd.DataLength); //输出接收到的数据 
    480                HalUARTWrite(0,"\n", 1); // 回车换行 
    481              }
    482              break;
    483            case SAMPLEAPP_ROUT_CNODE_CLUSTERID://协调器从锚节点接收数据
    484              if(zgDeviceLogicalType == ZG_DEVICETYPE_COORDINATOR)
   \                     ??SampleApp_MessageMSGCB_5:
   \   00015E   90....       MOV     DPTR,#zgDeviceLogicalType
   \   000161   E0           MOVX    A,@DPTR
   \   000162   7043         JNZ     ??SampleApp_MessageMSGCB_0
    485              {
    486                HalUARTWrite(0,"C",1);
   \   000164                ; Setup parameters for call to function HalUARTWrite
   \   000164   7C01         MOV     R4,#0x1
   \   000166   7D00         MOV     R5,#0x0
   \   000168   7A..         MOV     R2,#`?<Constant "C">` & 0xff
   \   00016A   7B..         MOV     R3,#(`?<Constant "C">` >> 8) & 0xff
   \   00016C   80AD         SJMP    ??SampleApp_MessageMSGCB_11
    487                HalUARTWrite(0,pkt->cmd.Data,pkt->cmd.DataLength); //输出接收到的数据 
    488                HalUARTWrite(0,"\n", 1); // 回车换行 
    489              }
   \                     ??SampleApp_MessageMSGCB_2:
   \   00016E   EE           MOV     A,R6
   \   00016F   2422         ADD     A,#0x22
   \   000171   F582         MOV     DPL,A
   \   000173   EF           MOV     A,R7
   \   000174   12....       LCALL   ??Subroutine4_0 & 0xFFFF
   \                     ??CrossCallReturnLabel_3:
   \   000177   F8           MOV     R0,A
   \   000178   A3           INC     DPTR
   \   000179   E0           MOVX    A,@DPTR
   \   00017A   F9           MOV     R1,A
   \   00017B                ; Setup parameters for call to function HalLedBlink
   \   00017B   8882         MOV     DPL,R0
   \   00017D   8983         MOV     DPH,R1
   \   00017F   A3           INC     DPTR
   \   000180   E0           MOVX    A,@DPTR
   \   000181   FA           MOV     R2,A
   \   000182   8882         MOV     DPL,R0
   \   000184   8983         MOV     DPH,R1
   \   000186   A3           INC     DPTR
   \   000187   A3           INC     DPTR
   \   000188   E0           MOVX    A,@DPTR
   \   000189   F9           MOV     R1,A
   \   00018A   EA           MOV     A,R2
   \   00018B   2400         ADD     A,#0x0
   \   00018D   F5..         MOV     ?V0 + 2,A
   \   00018F   E4           CLR     A
   \   000190   39           ADDC    A,R1
   \   000191   F5..         MOV     ?V0 + 3,A
   \   000193   7402         MOV     A,#0x2
   \   000195   78..         MOV     R0,#?V0 + 2
   \   000197   12....       LCALL   ?US_SHR
   \   00019A   AC..         MOV     R4,?V0 + 2
   \   00019C   AD..         MOV     R5,?V0 + 3
   \   00019E   7B32         MOV     R3,#0x32
   \   0001A0   7A04         MOV     R2,#0x4
   \   0001A2   7908         MOV     R1,#0x8
    490              break;
    491                
    492          
    493              case SAMPLEAPP_FLASH_CLUSTERID:
    494                flashTime = BUILD_UINT16(pkt->cmd.Data[1], pkt->cmd.Data[2] );
    495                HalLedBlink( HAL_LED_4, 4, 50, (flashTime / 4) );
   \   0001A4   12....       LCALL   ??HalLedBlink?relay
    496                break;
    497            }
    498          }
   \                     ??SampleApp_MessageMSGCB_0:
   \   0001A7   02....       LJMP    ?Subroutine0 & 0xFFFF

   \                                 In  segment BANKED_CODE, align 1, keep-with-next
   \                     ?Subroutine2:
   \   000000   88..         MOV     ?V0 + 2,R0
   \   000002                REQUIRE ??Subroutine3_0
   \   000002                ; // Fall through to label ??Subroutine3_0

   \                                 In  segment BANKED_CODE, align 1, keep-with-next
   \                     ??Subroutine3_0:
   \   000000   74..         MOV     A,#rssi_val & 0xff
   \   000002   25..         ADD     A,?V0 + 2
   \   000004   F582         MOV     DPL,A
   \   000006   74..         MOV     A,#(rssi_val >> 8) & 0xff
   \   000008                REQUIRE ??Subroutine4_0
   \   000008                ; // Fall through to label ??Subroutine4_0

   \                                 In  segment BANKED_CODE, align 1, keep-with-next
   \                     ??Subroutine4_0:
   \   000000   3400         ADDC    A,#0x0
   \   000002   F583         MOV     DPH,A
   \   000004   E0           MOVX    A,@DPTR
   \   000005   22           RET
    499          
    500          /*********************************************************************
    501           * @fn      SampleApp_SendPeriodicMessage
    502           *
    503           * @brief   Send the periodic message.
    504           *
    505           * @param   none
    506           *
    507           * @return  none
    508           */

   \                                 In  segment BANKED_CODE, align 1, keep-with-next
    509          void SampleApp_SendPeriodicMessage( void )//盲节点周期性广播
   \                     SampleApp_SendPeriodicMessage:
    510          {
   \   000000   74F6         MOV     A,#-0xa
   \   000002   12....       LCALL   ?BANKED_ENTER_XDATA
   \   000005                ; Saved register size: 10
   \   000005                ; Auto size: 11
   \   000005   74F5         MOV     A,#-0xb
   \   000007   12....       LCALL   ?ALLOC_XSTACK8
    511            byte state[]="Blind node";
   \   00000A   85..82       MOV     DPL,?XSP + 0
   \   00000D   85..83       MOV     DPH,?XSP + 1
   \   000010   AC82         MOV     R4,DPL
   \   000012   AD83         MOV     R5,DPH
   \   000014   7583..       MOV     DPH,#(`?<Constant "Blind node">` >> 8) & 0xff
   \   000017   7582..       MOV     DPL,#`?<Constant "Blind node">` & 0xff
   \   00001A   740B         MOV     A,#0xb
   \   00001C   12....       LCALL   ?MOVE_LONG8_XDATA_XDATA
    512            if ( AF_DataRequest( &SampleApp_Periodic_DstAddr, &SampleApp_epDesc,
    513                                 SAMPLEAPP_BLIND_CLUSTERID,
    514                                 sizeof("Blind node"),
    515                                 state,
    516                                 &SampleApp_TransID,
    517                                 AF_DISCV_ROUTE,
    518                                 AF_DEFAULT_RADIUS ) == afStatus_SUCCESS )
   \   00001F                ; Setup parameters for call to function AF_DataRequest
   \   00001F   75..1E       MOV     ?V0 + 0,#0x1e
   \   000022   78..         MOV     R0,#?V0 + 0
   \   000024   12....       LCALL   ?PUSH_XSTACK_I_ONE
   \   000027   75....       MOV     ?V0 + 0,#SampleApp_TransID & 0xff
   \   00002A   75....       MOV     ?V0 + 1,#(SampleApp_TransID >> 8) & 0xff
   \   00002D   78..         MOV     R0,#?V0 + 0
   \   00002F   12....       LCALL   ?PUSH_XSTACK_I_TWO
   \   000032   7403         MOV     A,#0x3
   \   000034   12....       LCALL   ?XSTACK_DISP0_8
   \   000037   8582..       MOV     ?V0 + 0,DPL
   \   00003A   8583..       MOV     ?V0 + 1,DPH
   \   00003D   78..         MOV     R0,#?V0 + 0
   \   00003F   12....       LCALL   ?PUSH_XSTACK_I_TWO
   \   000042   75..0B       MOV     ?V0 + 0,#0xb
   \   000045   75..00       MOV     ?V0 + 1,#0x0
   \   000048   78..         MOV     R0,#?V0 + 0
   \   00004A   12....       LCALL   ?PUSH_XSTACK_I_TWO
   \   00004D   75..01       MOV     ?V0 + 0,#0x1
   \   000050   78..         MOV     R0,#?V0 + 0
   \   000052   12....       LCALL   ?PUSH_XSTACK_I_TWO
   \   000055   7920         MOV     R1,#0x20
   \   000057   7C..         MOV     R4,#SampleApp_epDesc & 0xff
   \   000059   7D..         MOV     R5,#(SampleApp_epDesc >> 8) & 0xff
   \   00005B   7A..         MOV     R2,#SampleApp_Periodic_DstAddr & 0xff
   \   00005D   7B..         MOV     R3,#(SampleApp_Periodic_DstAddr >> 8) & 0xff
   \   00005F   12....       LCALL   ??AF_DataRequest?relay
   \   000062   7409         MOV     A,#0x9
   \   000064   12....       LCALL   ?DEALLOC_XSTACK8
    519            {
    520            }
    521            else
    522            {
    523              // Error occurred in request to send.
    524            }
    525          }
   \   000067   740B         MOV     A,#0xb
   \   000069   02....       LJMP    ?Subroutine1 & 0xFFFF

   \                                 In  segment BANKED_CODE, align 1, keep-with-next
   \                     ?Subroutine1:
   \   000000   12....       LCALL   ?DEALLOC_XSTACK8
   \   000003                REQUIRE ??Subroutine5_0
   \   000003                ; // Fall through to label ??Subroutine5_0
    526          
    527          /*********************************************************************
    528           * @fn      SampleApp_SendFlashMessage
    529           *
    530           * @brief   Send the flash message to group 1.
    531           *
    532           * @param   flashTime - in milliseconds
    533           *
    534           * @return  none
    535           */

   \                                 In  segment BANKED_CODE, align 1, keep-with-next
    536          void SampleApp_SendFlashMessage( uint16 flashTime )
   \                     SampleApp_SendFlashMessage:
    537          {
   \   000000   74F6         MOV     A,#-0xa
   \   000002   12....       LCALL   ?BANKED_ENTER_XDATA
   \   000005                ; Saved register size: 10
   \   000005                ; Auto size: 3
   \   000005   74FD         MOV     A,#-0x3
   \   000007   12....       LCALL   ?ALLOC_XSTACK8
    538            uint8 buffer[3];
    539            buffer[0] = (uint8)(SampleAppFlashCounter++);
   \   00000A   90....       MOV     DPTR,#SampleAppFlashCounter
   \   00000D   E0           MOVX    A,@DPTR
   \   00000E   85..82       MOV     DPL,?XSP + 0
   \   000011   85..83       MOV     DPH,?XSP + 1
   \   000014   F0           MOVX    @DPTR,A
   \   000015   90....       MOV     DPTR,#SampleAppFlashCounter
   \   000018   E0           MOVX    A,@DPTR
   \   000019   04           INC     A
   \   00001A   F0           MOVX    @DPTR,A
    540            buffer[1] = LO_UINT16( flashTime );
   \   00001B   7401         MOV     A,#0x1
   \   00001D   12....       LCALL   ?XSTACK_DISP0_8
   \   000020   EA           MOV     A,R2
   \   000021   F0           MOVX    @DPTR,A
    541            buffer[2] = HI_UINT16( flashTime );
   \   000022   7402         MOV     A,#0x2
   \   000024   12....       LCALL   ?XSTACK_DISP0_8
   \   000027   EB           MOV     A,R3
   \   000028   F0           MOVX    @DPTR,A
    542          
    543            if ( AF_DataRequest( &SampleApp_Flash_DstAddr, &SampleApp_epDesc,
    544                                 SAMPLEAPP_FLASH_CLUSTERID,
    545                                 3,
    546                                 buffer,
    547                                 &SampleApp_TransID,
    548                                 AF_DISCV_ROUTE,
    549                                 AF_DEFAULT_RADIUS ) == afStatus_SUCCESS )
   \   000029                ; Setup parameters for call to function AF_DataRequest
   \   000029   75..1E       MOV     ?V0 + 0,#0x1e
   \   00002C   78..         MOV     R0,#?V0 + 0
   \   00002E   12....       LCALL   ?PUSH_XSTACK_I_ONE
   \   000031   75....       MOV     ?V0 + 0,#SampleApp_TransID & 0xff
   \   000034   75....       MOV     ?V0 + 1,#(SampleApp_TransID >> 8) & 0xff
   \   000037   78..         MOV     R0,#?V0 + 0
   \   000039   12....       LCALL   ?PUSH_XSTACK_I_TWO
   \   00003C   7403         MOV     A,#0x3
   \   00003E   12....       LCALL   ?XSTACK_DISP0_8
   \   000041   8582..       MOV     ?V0 + 0,DPL
   \   000044   8583..       MOV     ?V0 + 1,DPH
   \   000047   78..         MOV     R0,#?V0 + 0
   \   000049   12....       LCALL   ?PUSH_XSTACK_I_TWO
   \   00004C   75..03       MOV     ?V0 + 0,#0x3
   \   00004F   75..00       MOV     ?V0 + 1,#0x0
   \   000052   78..         MOV     R0,#?V0 + 0
   \   000054   12....       LCALL   ?PUSH_XSTACK_I_TWO
   \   000057   75..02       MOV     ?V0 + 0,#0x2
   \   00005A   78..         MOV     R0,#?V0 + 0
   \   00005C   12....       LCALL   ?PUSH_XSTACK_I_TWO
   \   00005F   7920         MOV     R1,#0x20
   \   000061   7C..         MOV     R4,#SampleApp_epDesc & 0xff
   \   000063   7D..         MOV     R5,#(SampleApp_epDesc >> 8) & 0xff
   \   000065   7A..         MOV     R2,#SampleApp_Flash_DstAddr & 0xff
   \   000067   7B..         MOV     R3,#(SampleApp_Flash_DstAddr >> 8) & 0xff
   \   000069   12....       LCALL   ??AF_DataRequest?relay
   \   00006C   7409         MOV     A,#0x9
   \   00006E   12....       LCALL   ?DEALLOC_XSTACK8
    550            {
    551            }
    552            else
    553            {
    554              // Error occurred in request to send.
    555            }
    556          }
   \   000071   7403         MOV     A,#0x3
   \   000073   80..         SJMP    ?Subroutine1
    557          
    558          /*********************************************************************
    559          *********************************************************************/

   \                                 In  segment BANKED_CODE, align 1, keep-with-next
    560          void SampleApp_P2P_SendMessage( void )//参考节点点播给协调器发距离
   \                     SampleApp_P2P_SendMessage:
    561          {
   \   000000   74F6         MOV     A,#-0xa
   \   000002   12....       LCALL   ?BANKED_ENTER_XDATA
   \   000005                ; Saved register size: 10
   \   000005                ; Auto size: 0
    562             if ( AF_DataRequest( &SampleApp_p2p_DstAddr, 
    563                                &SampleApp_epDesc,
    564                                SAMPLEAPP_ROUT_BNODE_CLUSTERID,
    565                                3,
    566                                rssi_s,
    567                                &SampleApp_TransID,
    568                                AF_DISCV_ROUTE,
    569                                AF_DEFAULT_RADIUS ) == afStatus_SUCCESS )
   \   000005                ; Setup parameters for call to function AF_DataRequest
   \   000005   75..1E       MOV     ?V0 + 0,#0x1e
   \   000008   78..         MOV     R0,#?V0 + 0
   \   00000A   12....       LCALL   ?PUSH_XSTACK_I_ONE
   \   00000D   75....       MOV     ?V0 + 0,#SampleApp_TransID & 0xff
   \   000010   75....       MOV     ?V0 + 1,#(SampleApp_TransID >> 8) & 0xff
   \   000013   78..         MOV     R0,#?V0 + 0
   \   000015   12....       LCALL   ?PUSH_XSTACK_I_TWO
   \   000018   75....       MOV     ?V0 + 0,#rssi_s & 0xff
   \   00001B   75....       MOV     ?V0 + 1,#(rssi_s >> 8) & 0xff
   \   00001E   78..         MOV     R0,#?V0 + 0
   \   000020   12....       LCALL   ?PUSH_XSTACK_I_TWO
   \   000023   75..03       MOV     ?V0 + 0,#0x3
   \   000026   75..00       MOV     ?V0 + 1,#0x0
   \   000029   78..         MOV     R0,#?V0 + 0
   \   00002B   12....       LCALL   ?PUSH_XSTACK_I_TWO
   \   00002E   75..04       MOV     ?V0 + 0,#0x4
   \   000031   78..         MOV     R0,#?V0 + 0
   \   000033   12....       LCALL   ?PUSH_XSTACK_I_TWO
   \   000036   7920         MOV     R1,#0x20
   \   000038   7C..         MOV     R4,#SampleApp_epDesc & 0xff
   \   00003A   7D..         MOV     R5,#(SampleApp_epDesc >> 8) & 0xff
   \   00003C   7A..         MOV     R2,#SampleApp_p2p_DstAddr & 0xff
   \   00003E   7B..         MOV     R3,#(SampleApp_p2p_DstAddr >> 8) & 0xff
   \   000040   12....       LCALL   ??AF_DataRequest?relay
   \   000043   7409         MOV     A,#0x9
   \   000045                REQUIRE ?Subroutine1
   \   000045                ; // Fall through to label ?Subroutine1
    570            {
    571            }
    572            else
    573            {
    574              // Error occurred in request to send.
    575            }
    576          }

   \                                 In  segment BANK_RELAYS, align 1
   \                     ??SampleApp_Init?relay:
   \   000000   12....       LCALL   ?BDISPATCH
   \   000003   ......       DC24    SampleApp_Init

   \                                 In  segment BANK_RELAYS, align 1
   \                     ??SampleApp_ProcessEvent?relay:
   \   000000   12....       LCALL   ?BDISPATCH
   \   000003   ......       DC24    SampleApp_ProcessEvent

   \                                 In  segment BANK_RELAYS, align 1
   \                     ??SampleApp_HandleKeys?relay:
   \   000000   12....       LCALL   ?BDISPATCH
   \   000003   ......       DC24    SampleApp_HandleKeys

   \                                 In  segment BANK_RELAYS, align 1
   \                     ??SampleApp_MessageMSGCB?relay:
   \   000000   12....       LCALL   ?BDISPATCH
   \   000003   ......       DC24    SampleApp_MessageMSGCB

   \                                 In  segment BANK_RELAYS, align 1
   \                     ??SampleApp_SendPeriodicMessage?relay:
   \   000000   12....       LCALL   ?BDISPATCH
   \   000003   ......       DC24    SampleApp_SendPeriodicMessage

   \                                 In  segment BANK_RELAYS, align 1
   \                     ??SampleApp_SendFlashMessage?relay:
   \   000000   12....       LCALL   ?BDISPATCH
   \   000003   ......       DC24    SampleApp_SendFlashMessage

   \                                 In  segment BANK_RELAYS, align 1
   \                     ??SampleApp_P2P_SendMessage?relay:
   \   000000   12....       LCALL   ?BDISPATCH
   \   000003   ......       DC24    SampleApp_P2P_SendMessage

   \                                 In  segment XDATA_ROM_C, align 1
   \                     `?<Constant "UartInit OK\\n">`:
   \   000000   55617274     DB "UartInit OK\012"
   \            496E6974
   \            204F4B0A
   \            00      

   \                                 In  segment XDATA_ROM_C, align 1
   \                     `?<Constant "Group 1">`:
   \   000000   47726F75     DB "Group 1"
   \            70203100

   \                                 In  segment XDATA_ROM_C, align 1
   \                     `?<Constant "SampleApp">`:
   \   000000   53616D70     DB "SampleApp"
   \            6C654170
   \            7000    

   \                                 In  segment XDATA_ROM_C, align 1
   \                     `?<Constant "A">`:
   \   000000   4100         DB "A"

   \                                 In  segment XDATA_ROM_C, align 1
   \                     `?<Constant "\\n">`:
   \   000000   0A00         DB "\012"

   \                                 In  segment XDATA_ROM_C, align 1
   \                     `?<Constant "B">`:
   \   000000   4200         DB "B"

   \                                 In  segment XDATA_ROM_C, align 1
   \                     `?<Constant "C">`:
   \   000000   4300         DB "C"

   \                                 In  segment XDATA_ROM_C, align 1
   \                     `?<Constant "Blind node">`:
   \   000000   426C696E     DB "Blind node"
   \            64206E6F
   \            646500  

   Maximum stack usage in bytes:

     Function                       ISTACK PSTACK XSTACK
     --------                       ------ ------ ------
     SampleApp_HandleKeys               0      0     22
       -> SampleApp_SendFlashMessage
                                        0      0     20
       -> aps_FindGroup                 0      0     20
       -> aps_RemoveGroup               0      0     20
       -> aps_AddGroup                  0      0     20
     SampleApp_Init                     0      0     14
       -> MT_UartInit                   0      0     22
       -> MT_UartRegisterTaskID         0      0     22
       -> HalUARTWrite                  0      0     22
       -> afRegister                    0      0     22
       -> RegisterForKeys               0      0     22
       -> osal_memcpy                   0      0     28
       -> aps_AddGroup                  0      0     22
       -> HalLcdWriteString             0      0     22
     SampleApp_MessageMSGCB             1      0     24
       -> SampleApp_P2P_SendMessage     0      0     24
       -> HalUARTWrite                  0      0     24
       -> HalUARTWrite                  0      0     24
       -> HalUARTWrite                  0      0     24
       -> HalUARTWrite                  0      0     24
       -> HalUARTWrite                  0      0     24
       -> HalUARTWrite                  0      0     24
       -> HalUARTWrite                  0      0     24
       -> HalUARTWrite                  0      0     24
       -> HalUARTWrite                  0      0     24
       -> HalLedBlink                   0      0     24
     SampleApp_P2P_SendMessage          0      0     31
       -> AF_DataRequest                0      0     38
     SampleApp_ProcessEvent             0      0     12
       -> osal_msg_receive              0      0     24
       -> osal_start_timerEx            0      0     24
       -> osal_msg_deallocate           0      0     24
       -> osal_msg_receive              0      0     24
       -> SampleApp_HandleKeys          0      0     24
       -> SampleApp_MessageMSGCB        0      0     24
       -> SampleApp_SendPeriodicMessage
                                        0      0     24
       -> osal_rand                     0      0     24
       -> osal_start_timerEx            0      0     24
     SampleApp_SendFlashMessage         1      0     32
       -> AF_DataRequest                0      0     44
     SampleApp_SendPeriodicMessage      2      0     42
       -> AF_DataRequest                0      0     60


   Segment part sizes:

     Function/Label                        Bytes
     --------------                        -----
     SampleApp_ClusterList                   10
     SampleApp_SimpleDesc                    12
     SampleApp_epDesc                         6
     SampleApp_TaskID                         1
     SampleApp_NwkState                       1
     SampleApp_TransID                        1
     SampleApp_Periodic_DstAddr              12
     SampleApp_Flash_DstAddr                 12
     SampleApp_p2p_DstAddr                   12
     SampleApp_Group                         18
     SampleAppPeriodicCounter                 1
     SampleAppFlashCounter                    1
     rssi_val                                10
     rssi_index                               1
     rssi_s                                   3
     SampleApp_Init                         197
     SampleApp_ProcessEvent                 179
     ?Subroutine0                             5
     SampleApp_HandleKeys                    62
     ??Subroutine5_0                          5
     SampleApp_MessageMSGCB                 426
     ?Subroutine2                             2
     ??Subroutine3_0                          8
     ??Subroutine4_0                          6
     SampleApp_SendPeriodicMessage          108
     ?Subroutine1                             3
     SampleApp_SendFlashMessage             117
     SampleApp_P2P_SendMessage               69
     ??SampleApp_Init?relay                   6
     ??SampleApp_ProcessEvent?relay           6
     ??SampleApp_HandleKeys?relay             6
     ??SampleApp_MessageMSGCB?relay           6
     ??SampleApp_SendPeriodicMessage?relay    6
     ??SampleApp_SendFlashMessage?relay       6
     ??SampleApp_P2P_SendMessage?relay        6
     ?<Constant "UartInit OK\n">             13
     ?<Constant "Group 1">                    8
     ?<Constant "SampleApp">                 10
     ?<Constant "A">                          2
     ?<Constant "\n">                         2
     ?<Constant "B">                          2
     ?<Constant "C">                          2
     ?<Constant "Blind node">                11

 
 1 187 bytes in segment BANKED_CODE
    42 bytes in segment BANK_RELAYS
    72 bytes in segment XDATA_ROM_C
    79 bytes in segment XDATA_Z
 
 1 229 bytes of CODE  memory
    72 bytes of CONST memory
    79 bytes of XDATA memory

Errors: none
Warnings: none
